; Function Attrs: mustprogress uwtable
define hidden void @_ZN5osgeo4proj5datum9EllipsoidC2ERKNS0_6common6LengthES6_RKNSt7__cxx1112basic_stringIcSt11char_traitsIcESaIcEEE(ptr noundef nonnull align 8 dereferenceable(64) %0, ptr noundef nonnull align 8 dereferenceable(24) %1, ptr noundef nonnull align 8 dereferenceable(24) %2, ptr noundef nonnull align 8 dereferenceable(32) %3) unnamed_addr #0 align 2 personality ptr @__gxx_personality_v0 {
  tail call void @_ZN5osgeo4proj6common16IdentifiedObjectC2Ev(ptr noundef nonnull align 8 dereferenceable(40) %0)
  %5 = getelementptr inbounds i8, ptr %0, i64 40
  %6 = getelementptr inbounds i8, ptr %0, i64 48
  store ptr getelementptr inbounds inrange(-16, 56) ({ [9 x ptr], [5 x ptr], [5 x ptr], [5 x ptr], [5 x ptr] }, ptr @_ZTVN5osgeo4proj5datum9EllipsoidE, i64 0, i32 0, i64 2), ptr %0, align 8
  %7 = getelementptr inbounds i8, ptr %0, i64 16
  store ptr getelementptr inbounds inrange(-16, 24) ({ [9 x ptr], [5 x ptr], [5 x ptr], [5 x ptr], [5 x ptr] }, ptr @_ZTVN5osgeo4proj5datum9EllipsoidE, i64 0, i32 1, i64 2), ptr %7, align 8
  %8 = getelementptr inbounds i8, ptr %0, i64 24
  store ptr getelementptr inbounds inrange(-16, 24) ({ [9 x ptr], [5 x ptr], [5 x ptr], [5 x ptr], [5 x ptr] }, ptr @_ZTVN5osgeo4proj5datum9EllipsoidE, i64 0, i32 2, i64 2), ptr %8, align 8
  store ptr getelementptr inbounds inrange(-16, 24) ({ [9 x ptr], [5 x ptr], [5 x ptr], [5 x ptr], [5 x ptr] }, ptr @_ZTVN5osgeo4proj5datum9EllipsoidE, i64 0, i32 3, i64 2), ptr %5, align 8
  store ptr getelementptr inbounds inrange(-16, 24) ({ [9 x ptr], [5 x ptr], [5 x ptr], [5 x ptr], [5 x ptr] }, ptr @_ZTVN5osgeo4proj5datum9EllipsoidE, i64 0, i32 4, i64 2), ptr %6, align 8
  tail call void @llvm.experimental.noalias.scope.decl(metadata !31)
  %9 = invoke noalias noundef nonnull dereferenceable(152) ptr @_Znwm(i64 noundef 152) #27
          to label %.noexc unwind label %14

.noexc:                                           ; preds = %4
  invoke void @_ZN5osgeo4proj5datum9Ellipsoid7PrivateC2ERKNS0_6common6LengthES7_RKNSt7__cxx1112basic_stringIcSt11char_traitsIcESaIcEEE(ptr noundef nonnull align 8 dereferenceable(152) %9, ptr noundef nonnull align 8 dereferenceable(24) %1, ptr noundef nonnull align 8 dereferenceable(24) %2, ptr noundef nonnull align 8 dereferenceable(32) %3)
          to label %12 unwind label %10, !noalias !31

10:                                               ; preds = %.noexc
  %11 = landingpad { ptr, i32 }
          cleanup
  tail call void @_ZdlPv(ptr noundef nonnull %9) #28, !noalias !31
  br label %.body

12:                                               ; preds = %.noexc
  %13 = getelementptr inbounds i8, ptr %0, i64 56
  store ptr %9, ptr %13, align 8, !alias.scope !31
  ret void

14:                                               ; preds = %4
  %15 = landingpad { ptr, i32 }
          cleanup
  br label %.body

.body:                                            ; preds = %10, %14
  %eh.lpad-body = phi { ptr, i32 } [ %15, %14 ], [ %11, %10 ]
  tail call void @_ZN5osgeo4proj2io15IJSONExportableD2Ev(ptr noundef nonnull align 8 dereferenceable(8) %6) #26
  tail call void @_ZN5osgeo4proj2io21IPROJStringExportableD2Ev(ptr noundef nonnull align 8 dereferenceable(8) %5) #26
  tail call void @_ZN5osgeo4proj6common16IdentifiedObjectD2Ev(ptr noundef nonnull align 8 dereferenceable(40) %0) #26
  resume { ptr, i32 } %eh.lpad-body
}